target datalayout = "e-m:e-p270:32:32-p271:32:32-p272:64:64-i64:64-i128:128-f80:128-n8:16:32:64-S128"
target triple = "x86_64-pc-linux-gnu"

; Function Attrs: nounwind uwtable
define internal void @splitTilesLog2(i32 noundef %0, i32 noundef %1, i32 noundef %2, ptr noundef %3, ptr noundef %4) #0 {
  %6 = alloca i32, align 4
  %7 = alloca i32, align 4
  %8 = alloca i32, align 4
  %9 = alloca ptr, align 8
  %10 = alloca ptr, align 8
  %11 = alloca i32, align 4
  %12 = alloca i32, align 4
  %13 = alloca i32, align 4
  store i32 %0, ptr %6, align 4
  store i32 %1, ptr %7, align 4
  store i32 %2, ptr %8, align 4
  store ptr %3, ptr %9, align 8
  store ptr %4, ptr %10, align 8
  %14 = load i32, ptr %6, align 4
  %15 = load i32, ptr %7, align 4
  %16 = udiv i32 %14, %15
  store i32 %16, ptr %11, align 4
  %17 = load i32, ptr %11, align 4
  %18 = call i32 @floorLog2(i32 noundef %17)
  store i32 %18, ptr %12, align 4
  %19 = load i32, ptr %8, align 4
  %20 = load i32, ptr %12, align 4
  %21 = sub nsw i32 %19, %20
  store i32 %21, ptr %13, align 4
  %22 = load i32, ptr %13, align 4
  %23 = icmp slt i32 %22, 0
  br i1 %23, label %24, label %25

24:                                               ; preds = %5
  store i32 0, ptr %13, align 4
  br label %25

25:                                               ; preds = %24, %5
  %26 = load i32, ptr %13, align 4
  %27 = sdiv i32 %26, 2
  %28 = load ptr, ptr %10, align 8
  store i32 %27, ptr %28, align 4
  %29 = load i32, ptr %8, align 4
  %30 = load ptr, ptr %10, align 8
  %31 = load i32, ptr %30, align 4
  %32 = sub nsw i32 %29, %31
  %33 = load ptr, ptr %9, align 8
  store i32 %32, ptr %33, align 4
  ret void
}

; Function Attrs: nounwind uwtable
define internal i32 @floorLog2(i32 noundef %0) #0 {
  %2 = alloca i32, align 4
  %3 = alloca i32, align 4
  store i32 %0, ptr %2, align 4
  store i32 0, ptr %3, align 4
  br label %4

4:                                                ; preds = %7, %1
  %5 = load i32, ptr %2, align 4
  %6 = icmp ne i32 %5, 0
  br i1 %6, label %7, label %12

7:                                                ; preds = %4
  %8 = load i32, ptr %3, align 4
  %9 = add nsw i32 %8, 1
  store i32 %9, ptr %3, align 4
  %10 = load i32, ptr %2, align 4
  %11 = lshr i32 %10, 1
  store i32 %11, ptr %2, align 4
  br label %4, !llvm.loop !4

12:                                               ; preds = %4
  %13 = load i32, ptr %3, align 4
  %14 = sub nsw i32 %13, 1
  ret i32 %14
}

; Function Attrs: nounwind uwtable
define hidden void @avifSetTileConfiguration(i32 noundef %0, i32 noundef %1, i32 noundef %2, ptr noundef %3, ptr noundef %4) #0 {
  %6 = alloca i32, align 4
  %7 = alloca i32, align 4
  %8 = alloca i32, align 4
  %9 = alloca ptr, align 8
  %10 = alloca ptr, align 8
  %11 = alloca i32, align 4
  %12 = alloca i32, align 4
  %13 = alloca i32, align 4
  %14 = alloca i32, align 4
  %15 = alloca i32, align 4
  store i32 %0, ptr %6, align 4
  store i32 %1, ptr %7, align 4
  store i32 %2, ptr %8, align 4
  store ptr %3, ptr %9, align 8
  store ptr %4, ptr %10, align 8
  %16 = load ptr, ptr %9, align 8
  store i32 0, ptr %16, align 4
  %17 = load ptr, ptr %10, align 8
  store i32 0, ptr %17, align 4
  %18 = load i32, ptr %6, align 4
  %19 = icmp sgt i32 %18, 1
  br i1 %19, label %20, label %56

20:                                               ; preds = %5
  store i32 262144, ptr %11, align 4
  store i32 32, ptr %12, align 4
  %21 = load i32, ptr %7, align 4
  %22 = load i32, ptr %8, align 4
  %23 = mul i32 %21, %22
  store i32 %23, ptr %13, align 4
  %24 = load i32, ptr %13, align 4
  %25 = add i32 %24, 262144
  %26 = sub i32 %25, 1
  %27 = udiv i32 %26, 262144
  store i32 %27, ptr %14, align 4
  %28 = load i32, ptr %14, align 4
  %29 = icmp ugt i32 %28, 32
  br i1 %29, label %30, label %31

30:                                               ; preds = %20
  store i32 32, ptr %14, align 4
  br label %31

31:                                               ; preds = %30, %20
  %32 = load i32, ptr %14, align 4
  %33 = load i32, ptr %6, align 4
  %34 = icmp ugt i32 %32, %33
  br i1 %34, label %35, label %37

35:                                               ; preds = %31
  %36 = load i32, ptr %6, align 4
  store i32 %36, ptr %14, align 4
  br label %37

37:                                               ; preds = %35, %31
  %38 = load i32, ptr %14, align 4
  %39 = call i32 @floorLog2(i32 noundef %38)
  store i32 %39, ptr %15, align 4
  %40 = load i32, ptr %7, align 4
  %41 = load i32, ptr %8, align 4
  %42 = icmp uge i32 %40, %41
  br i1 %42, label %43, label %49

43:                                               ; preds = %37
  %44 = load i32, ptr %7, align 4
  %45 = load i32, ptr %8, align 4
  %46 = load i32, ptr %15, align 4
  %47 = load ptr, ptr %10, align 8
  %48 = load ptr, ptr %9, align 8
  call void @splitTilesLog2(i32 noundef %44, i32 noundef %45, i32 noundef %46, ptr noundef %47, ptr noundef %48)
  br label %55

49:                                               ; preds = %37
  %50 = load i32, ptr %8, align 4
  %51 = load i32, ptr %7, align 4
  %52 = load i32, ptr %15, align 4
  %53 = load ptr, ptr %9, align 8
  %54 = load ptr, ptr %10, align 8
  call void @splitTilesLog2(i32 noundef %50, i32 noundef %51, i32 noundef %52, ptr noundef %53, ptr noundef %54)
  br label %55

55:                                               ; preds = %49, %43
  br label %56

56:                                               ; preds = %55, %5
  ret void
}