; Function Attrs: mustprogress nofree norecurse nosync nounwind willreturn memory(write, inaccessiblemem: none) uwtable
define hidden void @avifSetTileConfiguration(i32 noundef %0, i32 noundef %1, i32 noundef %2, ptr nocapture noundef writeonly %3, ptr nocapture noundef writeonly %4) local_unnamed_addr #0 {
  store i32 0, ptr %3, align 4
  store i32 0, ptr %4, align 4
  %6 = icmp sgt i32 %0, 1
  br i1 %6, label %7, label %21

7:                                                ; preds = %5
  %8 = mul i32 %2, %1
  %9 = add i32 %8, 262143
  %.not5.i = icmp ult i32 %9, 262144
  br i1 %.not5.i, label %floorLog2.exit, label %.lr.ph.preheader.i

.lr.ph.preheader.i:                               ; preds = %7
  %10 = lshr i32 %9, 18
  %spec.store.select = tail call i32 @llvm.umin.i32(i32 %10, i32 %0)
  %spec.select = tail call i32 @llvm.umin.i32(i32 %spec.store.select, i32 32)
  %11 = lshr i32 %spec.select, 1
  %12 = tail call range(i32 1, 33) i32 @llvm.ctlz.i32(i32 %11, i1 false)
  %13 = sub nuw nsw i32 32, %12
  br label %floorLog2.exit

floorLog2.exit:                                   ; preds = %7, %.lr.ph.preheader.i
  %.0.lcssa.i = phi i32 [ -1, %7 ], [ %13, %.lr.ph.preheader.i ]
  %.not = icmp ult i32 %1, %2
  %.neg.i28 = add nsw i32 %.0.lcssa.i, -32
  br i1 %.not, label %splitTilesLog2.exit31, label %splitTilesLog2.exit

splitTilesLog2.exit:                              ; preds = %floorLog2.exit
  %14 = udiv i32 %1, %2
  br label %.sink.split

splitTilesLog2.exit31:                            ; preds = %floorLog2.exit
  %15 = udiv i32 %2, %1
  br label %.sink.split

.sink.split:                                      ; preds = %splitTilesLog2.exit31, %splitTilesLog2.exit
  %.sink36 = phi i32 [ %14, %splitTilesLog2.exit ], [ %15, %splitTilesLog2.exit31 ]
  %.sink34 = phi ptr [ %3, %splitTilesLog2.exit ], [ %4, %splitTilesLog2.exit31 ]
  %.sink32 = phi ptr [ %4, %splitTilesLog2.exit ], [ %3, %splitTilesLog2.exit31 ]
  %16 = lshr i32 %.sink36, 1
  %17 = tail call range(i32 1, 33) i32 @llvm.ctlz.i32(i32 %16, i1 false)
  %18 = add nsw i32 %.neg.i28, %17
  %spec.store.select.i = tail call i32 @llvm.smax.i32(i32 %18, i32 0)
  %19 = lshr i32 %spec.store.select.i, 1
  store i32 %19, ptr %.sink34, align 4
  %20 = sub nsw i32 %.0.lcssa.i, %19
  store i32 %20, ptr %.sink32, align 4
  br label %21

21:                                               ; preds = %.sink.split, %5
  ret void
}